; ModuleID = '54/661.c'
source_filename = "54/661.c"
target datalayout = "e-m:e-p270:32:32-p271:32:32-p272:64:64-i64:64-f80:128-n8:16:32:64-S128"
target triple = "x86_64-pc-linux-gnu"

@.str = private unnamed_addr constant [6 x i8] c"%d %d\00", align 1
@.str.1 = private unnamed_addr constant [4 x i8] c"%d\0A\00", align 1

; Function Attrs: noinline nounwind uwtable
define dso_local void @main() #0 {
  %1 = alloca i32, align 4
  %2 = alloca i32, align 4
  %3 = alloca i32, align 4
  %4 = alloca i32, align 4
  %5 = alloca i32, align 4
  %6 = call i32 (i8*, ...) @__isoc99_scanf(i8* getelementptr inbounds ([6 x i8], [6 x i8]* @.str, i64 0, i64 0), i32* %1, i32* %2)
  store i32 0, i32* %3, align 4
  store i32 0, i32* %4, align 4
  store i32 0, i32* %5, align 4
  %7 = load i32, i32* %1, align 4
  %8 = sub nsw i32 %7, 1
  store i32 %8, i32* %4, align 4
  br label %9

9:                                                ; preds = %44, %0
  %10 = load i32, i32* %4, align 4
  store i32 %10, i32* %5, align 4
  %11 = load i32, i32* %4, align 4
  %12 = load i32, i32* %1, align 4
  %13 = add nsw i32 %11, %12
  %14 = sub nsw i32 %13, 1
  store i32 %14, i32* %4, align 4
  store i32 0, i32* %3, align 4
  br label %15

15:                                               ; preds = %37, %9
  %16 = load i32, i32* %3, align 4
  %17 = load i32, i32* %1, align 4
  %18 = icmp sle i32 %16, %17
  br i1 %18, label %19, label %38

19:                                               ; preds = %15
  %20 = load i32, i32* %5, align 4
  %21 = load i32, i32* %1, align 4
  %22 = sub nsw i32 %21, 1
  %23 = srem i32 %20, %22
  %24 = icmp eq i32 %23, 0
  br i1 %24, label %25, label %36

25:                                               ; preds = %19
  %26 = load i32, i32* %5, align 4
  %27 = load i32, i32* %1, align 4
  %28 = sub nsw i32 %27, 1
  %29 = sdiv i32 %26, %28
  %30 = load i32, i32* %1, align 4
  %31 = mul nsw i32 %29, %30
  %32 = load i32, i32* %2, align 4
  %33 = add nsw i32 %31, %32
  store i32 %33, i32* %5, align 4
  %34 = load i32, i32* %3, align 4
  %35 = add nsw i32 %34, 1
  store i32 %35, i32* %3, align 4
  br label %37

36:                                               ; preds = %19
  br label %38

37:                                               ; preds = %25
  br label %15

38:                                               ; preds = %36, %15
  %39 = load i32, i32* %3, align 4
  %40 = load i32, i32* %1, align 4
  %41 = icmp ne i32 %39, %40
  br i1 %41, label %42, label %43

42:                                               ; preds = %38
  br label %44

43:                                               ; preds = %38
  br label %48

44:                                               ; preds = %42
  %45 = load i32, i32* %3, align 4
  %46 = load i32, i32* %1, align 4
  %47 = icmp ne i32 %45, %46
  br i1 %47, label %9, label %48

48:                                               ; preds = %44, %43
  %49 = load i32, i32* %5, align 4
  %50 = call i32 (i8*, ...) @printf(i8* getelementptr inbounds ([4 x i8], [4 x i8]* @.str.1, i64 0, i64 0), i32 %49)
  ret void
}

declare dso_local i32 @__isoc99_scanf(i8*, ...) #1

declare dso_local i32 @printf(i8*, ...) #1


!llvm.module.flags = !{!0}
!llvm.ident = !{!1}

!0 = !{i32 1, !"wchar_size", i32 4}
!1 = !{!"clang version 10.0.0-4ubuntu1 "}
